; Function Attrs: inlinehint mustprogress nounwind uwtable
define internal fastcc void @"_ZZN17grpc_event_engine12experimental18ThreadyEventEngine18ThreadyDNSResolver14LookupHostnameEN4absl12lts_2024072212AnyInvocableIFvNS4_8StatusOrISt6vectorINS0_11EventEngine15ResolvedAddressESaIS9_EEEEEEESt17basic_string_viewIcSt11char_traitsIcEESI_EN3$_0D2Ev"(ptr noundef nonnull align 16 dereferenceable(48) %0) unnamed_addr #6 align 2 personality ptr @__gxx_personality_v0 {
  %2 = getelementptr inbounds nuw i8, ptr %0, i64 16
  %3 = getelementptr inbounds nuw i8, ptr %0, i64 32
  %4 = load ptr, ptr %3, align 16, !tbaa !109
  tail call void %4(i1 noundef zeroext true, ptr noundef nonnull align 16 dereferenceable(32) %2, ptr noundef nonnull align 16 dereferenceable(32) %2) #26
  %5 = getelementptr inbounds nuw i8, ptr %0, i64 8
  %6 = load ptr, ptr %5, align 8, !tbaa !49
  %.not.i.i = icmp eq ptr %6, null
  br i1 %.not.i.i, label %_ZNSt12__shared_ptrIN17grpc_event_engine12experimental18ThreadyEventEngineELN9__gnu_cxx12_Lock_policyE2EED2Ev.exit, label %7

7:                                                ; preds = %1
  %8 = getelementptr inbounds nuw i8, ptr %6, i64 8
  %9 = load atomic i64, ptr %8 acquire, align 8
  %10 = icmp eq i64 %9, 4294967297
  %11 = trunc i64 %9 to i32
  br i1 %10, label %12, label %20

12:                                               ; preds = %7
  store i32 0, ptr %8, align 8, !tbaa !30
  %13 = getelementptr inbounds nuw i8, ptr %6, i64 12
  store i32 0, ptr %13, align 4, !tbaa !33
  %14 = load ptr, ptr %6, align 8, !tbaa !21
  %15 = getelementptr inbounds nuw i8, ptr %14, i64 16
  %16 = load ptr, ptr %15, align 8
  tail call void %16(ptr noundef nonnull align 8 dereferenceable(16) %6) #26
  %17 = load ptr, ptr %6, align 8, !tbaa !21
  %18 = getelementptr inbounds nuw i8, ptr %17, i64 24
  %19 = load ptr, ptr %18, align 8
  tail call void %19(ptr noundef nonnull align 8 dereferenceable(16) %6) #26
  br label %_ZNSt12__shared_ptrIN17grpc_event_engine12experimental18ThreadyEventEngineELN9__gnu_cxx12_Lock_policyE2EED2Ev.exit

20:                                               ; preds = %7
  %21 = load i8, ptr @__libc_single_threaded, align 1, !tbaa !50
  %.not.i.i.i = icmp eq i8 %21, 0
  br i1 %.not.i.i.i, label %24, label %22

22:                                               ; preds = %20
  %23 = add nsw i32 %11, -1
  store i32 %23, ptr %8, align 4, !tbaa !51
  br label %_ZN9__gnu_cxx27__exchange_and_add_dispatchEPii.exit.i.i.i

24:                                               ; preds = %20
  %25 = atomicrmw volatile add ptr %8, i32 -1 acq_rel, align 4
  br label %_ZN9__gnu_cxx27__exchange_and_add_dispatchEPii.exit.i.i.i

_ZN9__gnu_cxx27__exchange_and_add_dispatchEPii.exit.i.i.i: ; preds = %24, %22
  %.0.i.i.i.i = phi i32 [ %11, %22 ], [ %25, %24 ]
  %26 = icmp eq i32 %.0.i.i.i.i, 1
  br i1 %26, label %27, label %_ZNSt12__shared_ptrIN17grpc_event_engine12experimental18ThreadyEventEngineELN9__gnu_cxx12_Lock_policyE2EED2Ev.exit, !prof !26

27:                                               ; preds = %_ZN9__gnu_cxx27__exchange_and_add_dispatchEPii.exit.i.i.i
  tail call void @_ZNSt16_Sp_counted_baseILN9__gnu_cxx12_Lock_policyE2EE24_M_release_last_use_coldEv(ptr noundef nonnull align 8 dereferenceable(16) %6) #26
  br label %_ZNSt12__shared_ptrIN17grpc_event_engine12experimental18ThreadyEventEngineELN9__gnu_cxx12_Lock_policyE2EED2Ev.exit

_ZNSt12__shared_ptrIN17grpc_event_engine12experimental18ThreadyEventEngineELN9__gnu_cxx12_Lock_policyE2EED2Ev.exit: ; preds = %1, %12, %_ZN9__gnu_cxx27__exchange_and_add_dispatchEPii.exit.i.i.i, %27
  ret void
}